target datalayout = "e-m:e-p270:32:32-p271:32:32-p272:64:64-i64:64-i128:128-f80:128-n8:16:32:64-S128"
target triple = "x86_64-unknown-linux-gnu"

%"class.google::protobuf::compiler::SourceTreeDescriptorDatabase" = type { %"class.google::protobuf::DescriptorDatabase", ptr, ptr, ptr, i8, %"class.google::protobuf::compiler::SourceLocationTable", %"class.google::protobuf::compiler::SourceTreeDescriptorDatabase::ValidationErrorCollector" }
%"class.google::protobuf::DescriptorDatabase" = type { ptr }
%"class.google::protobuf::compiler::SourceLocationTable" = type { %"class.absl::lts_20230802::flat_hash_map", %"class.absl::lts_20230802::flat_hash_map.7" }
%"class.absl::lts_20230802::flat_hash_map" = type { %"class.absl::lts_20230802::container_internal::raw_hash_map" }
%"class.absl::lts_20230802::container_internal::raw_hash_map" = type { %"class.absl::lts_20230802::container_internal::raw_hash_set" }
%"class.absl::lts_20230802::container_internal::raw_hash_set" = type { %"class.absl::lts_20230802::container_internal::CompressedTuple" }
%"class.absl::lts_20230802::container_internal::CompressedTuple" = type { %"struct.absl::lts_20230802::container_internal::internal_compressed_tuple::CompressedTupleImpl" }
%"struct.absl::lts_20230802::container_internal::internal_compressed_tuple::CompressedTupleImpl" = type { %"struct.absl::lts_20230802::container_internal::internal_compressed_tuple::Storage" }
%"struct.absl::lts_20230802::container_internal::internal_compressed_tuple::Storage" = type { %"class.absl::lts_20230802::container_internal::CommonFields" }
%"class.absl::lts_20230802::container_internal::CommonFields" = type { ptr, ptr, i64, %"class.absl::lts_20230802::container_internal::CompressedTuple.0" }
%"class.absl::lts_20230802::container_internal::CompressedTuple.0" = type { %"struct.absl::lts_20230802::container_internal::internal_compressed_tuple::CompressedTupleImpl.1" }
%"struct.absl::lts_20230802::container_internal::internal_compressed_tuple::CompressedTupleImpl.1" = type { %"struct.absl::lts_20230802::container_internal::internal_compressed_tuple::Storage.2" }
%"struct.absl::lts_20230802::container_internal::internal_compressed_tuple::Storage.2" = type { i64 }
%"class.absl::lts_20230802::flat_hash_map.7" = type { %"class.absl::lts_20230802::container_internal::raw_hash_map.8" }
%"class.absl::lts_20230802::container_internal::raw_hash_map.8" = type { %"class.absl::lts_20230802::container_internal::raw_hash_set.9" }
%"class.absl::lts_20230802::container_internal::raw_hash_set.9" = type { %"class.absl::lts_20230802::container_internal::CompressedTuple.10" }
%"class.absl::lts_20230802::container_internal::CompressedTuple.10" = type { %"struct.absl::lts_20230802::container_internal::internal_compressed_tuple::CompressedTupleImpl.11" }
%"struct.absl::lts_20230802::container_internal::internal_compressed_tuple::CompressedTupleImpl.11" = type { %"struct.absl::lts_20230802::container_internal::internal_compressed_tuple::Storage" }
%"class.google::protobuf::compiler::SourceTreeDescriptorDatabase::ValidationErrorCollector" = type { %"class.google::protobuf::DescriptorPool::ErrorCollector", ptr }
%"class.google::protobuf::DescriptorPool::ErrorCollector" = type { ptr }
%"class.std::basic_string_view" = type { i64, ptr }

; Function Attrs: mustprogress uwtable
define void @_ZN6google8protobuf8compiler28SourceTreeDescriptorDatabase24ValidationErrorCollector13RecordWarningESt17basic_string_viewIcSt11char_traitsIcEES7_PKNS0_7MessageENS0_14DescriptorPool14ErrorCollector13ErrorLocationES7_(ptr noundef nonnull align 8 dereferenceable(16) %this, i64 %filename.coerce0, ptr %filename.coerce1, i64 %element_name.coerce0, ptr %element_name.coerce1, ptr noundef %descriptor, i32 noundef %location, ptr noundef byval(%"class.std::basic_string_view") align 8 %message) unnamed_addr #6 align 2 {
entry:
  %filename = alloca %"class.std::basic_string_view", align 8
  %element_name = alloca %"class.std::basic_string_view", align 8
  %this.addr = alloca ptr, align 8
  %descriptor.addr = alloca ptr, align 8
  %location.addr = alloca i32, align 4
  %line = alloca i32, align 4
  %column = alloca i32, align 4
  %agg.tmp = alloca %"class.std::basic_string_view", align 8
  %agg.tmp11 = alloca %"class.std::basic_string_view", align 8
  %agg.tmp12 = alloca %"class.std::basic_string_view", align 8
  %0 = getelementptr inbounds { i64, ptr }, ptr %filename, i32 0, i32 0
  store i64 %filename.coerce0, ptr %0, align 8
  %1 = getelementptr inbounds { i64, ptr }, ptr %filename, i32 0, i32 1
  store ptr %filename.coerce1, ptr %1, align 8
  %2 = getelementptr inbounds { i64, ptr }, ptr %element_name, i32 0, i32 0
  store i64 %element_name.coerce0, ptr %2, align 8
  %3 = getelementptr inbounds { i64, ptr }, ptr %element_name, i32 0, i32 1
  store ptr %element_name.coerce1, ptr %3, align 8
  store ptr %this, ptr %this.addr, align 8
  store ptr %descriptor, ptr %descriptor.addr, align 8
  store i32 %location, ptr %location.addr, align 4
  %this1 = load ptr, ptr %this.addr, align 8
  %owner_ = getelementptr inbounds %"class.google::protobuf::compiler::SourceTreeDescriptorDatabase::ValidationErrorCollector", ptr %this1, i32 0, i32 1
  %4 = load ptr, ptr %owner_, align 8
  %error_collector_ = getelementptr inbounds %"class.google::protobuf::compiler::SourceTreeDescriptorDatabase", ptr %4, i32 0, i32 3
  %5 = load ptr, ptr %error_collector_, align 8
  %cmp = icmp eq ptr %5, null
  br i1 %cmp, label %if.then, label %if.end

if.then:                                          ; preds = %entry
  br label %return

if.end:                                           ; preds = %entry
  %6 = load i32, ptr %location.addr, align 4
  %cmp2 = icmp eq i32 %6, 9
  br i1 %cmp2, label %if.then3, label %if.else

if.then3:                                         ; preds = %if.end
  %owner_4 = getelementptr inbounds %"class.google::protobuf::compiler::SourceTreeDescriptorDatabase::ValidationErrorCollector", ptr %this1, i32 0, i32 1
  %7 = load ptr, ptr %owner_4, align 8
  %source_locations_ = getelementptr inbounds %"class.google::protobuf::compiler::SourceTreeDescriptorDatabase", ptr %7, i32 0, i32 5
  %8 = load ptr, ptr %descriptor.addr, align 8
  call void @llvm.memcpy.p0.p0.i64(ptr align 8 %agg.tmp, ptr align 8 %element_name, i64 16, i1 false)
  %9 = getelementptr inbounds { i64, ptr }, ptr %agg.tmp, i32 0, i32 0
  %10 = load i64, ptr %9, align 8
  %11 = getelementptr inbounds { i64, ptr }, ptr %agg.tmp, i32 0, i32 1
  %12 = load ptr, ptr %11, align 8
  %call = call noundef zeroext i1 @_ZNK6google8protobuf8compiler19SourceLocationTable10FindImportEPKNS0_7MessageESt17basic_string_viewIcSt11char_traitsIcEEPiSA_(ptr noundef nonnull align 8 dereferenceable(64) %source_locations_, ptr noundef %8, i64 %10, ptr %12, ptr noundef %line, ptr noundef %column)
  br label %if.end8

if.else:                                          ; preds = %if.end
  %owner_5 = getelementptr inbounds %"class.google::protobuf::compiler::SourceTreeDescriptorDatabase::ValidationErrorCollector", ptr %this1, i32 0, i32 1
  %13 = load ptr, ptr %owner_5, align 8
  %source_locations_6 = getelementptr inbounds %"class.google::protobuf::compiler::SourceTreeDescriptorDatabase", ptr %13, i32 0, i32 5
  %14 = load ptr, ptr %descriptor.addr, align 8
  %15 = load i32, ptr %location.addr, align 4
  %call7 = call noundef zeroext i1 @_ZNK6google8protobuf8compiler19SourceLocationTable4FindEPKNS0_7MessageENS0_14DescriptorPool14ErrorCollector13ErrorLocationEPiS9_(ptr noundef nonnull align 8 dereferenceable(64) %source_locations_6, ptr noundef %14, i32 noundef %15, ptr noundef %line, ptr noundef %column)
  br label %if.end8

if.end8:                                          ; preds = %if.else, %if.then3
  %owner_9 = getelementptr inbounds %"class.google::protobuf::compiler::SourceTreeDescriptorDatabase::ValidationErrorCollector", ptr %this1, i32 0, i32 1
  %16 = load ptr, ptr %owner_9, align 8
  %error_collector_10 = getelementptr inbounds %"class.google::protobuf::compiler::SourceTreeDescriptorDatabase", ptr %16, i32 0, i32 3
  %17 = load ptr, ptr %error_collector_10, align 8
  call void @llvm.memcpy.p0.p0.i64(ptr align 8 %agg.tmp11, ptr align 8 %filename, i64 16, i1 false)
  %18 = load i32, ptr %line, align 4
  %19 = load i32, ptr %column, align 4
  call void @llvm.memcpy.p0.p0.i64(ptr align 8 %agg.tmp12, ptr align 8 %message, i64 16, i1 false)
  %20 = getelementptr inbounds { i64, ptr }, ptr %agg.tmp11, i32 0, i32 0
  %21 = load i64, ptr %20, align 8
  %22 = getelementptr inbounds { i64, ptr }, ptr %agg.tmp11, i32 0, i32 1
  %23 = load ptr, ptr %22, align 8
  %vtable = load ptr, ptr %17, align 8
  %vfn = getelementptr inbounds ptr, ptr %vtable, i64 3
  %24 = load ptr, ptr %vfn, align 8
  call void %24(ptr noundef nonnull align 8 dereferenceable(8) %17, i64 %21, ptr %23, i32 noundef %18, i32 noundef %19, ptr noundef byval(%"class.std::basic_string_view") align 8 %agg.tmp12)
  br label %return

return:                                           ; preds = %if.end8, %if.then
  ret void
}